target datalayout = "e-m:e-p270:32:32-p271:32:32-p272:64:64-i64:64-i128:128-f80:128-n8:16:32:64-S128"
target triple = "x86_64-pc-linux-gnu"

%struct.archive_read = type { %struct.archive, ptr, i32, i64, i64, %struct.archive_read_client, [16 x %struct.archive_read_filter_bidder], ptr, i32, i64, i32, i32, [16 x %struct.archive_format_descriptor], ptr, ptr, ptr, %struct.anon }
%struct.archive = type { i32, i32, ptr, i32, ptr, i32, i32, ptr, %struct.archive_string, ptr, i32, i32, ptr, ptr, i64, i64, i64, i8, i64 }
%struct.archive_string = type { ptr, i64, i64 }
%struct.archive_read_client = type { ptr, ptr, ptr, ptr, ptr, ptr, i32, i32, i64, ptr }
%struct.archive_read_filter_bidder = type { ptr, ptr, ptr }
%struct.archive_format_descriptor = type { ptr, ptr, ptr, ptr, ptr, ptr, ptr, ptr, ptr, ptr, ptr }
%struct.anon = type { ptr, ptr, i32, ptr, ptr }
%struct.tar = type { %struct.archive_string, %struct.archive_string, %struct.archive_string, %struct.archive_string, %struct.archive_string, %struct.archive_string, i32, i64, i64, i64, i64, i64, ptr, ptr, i64, i64, i32, i32, i8, i8, %struct.archive_string, ptr, ptr, ptr, ptr, i32, i32, i32, i32, i32 }

@.str.29 = private unnamed_addr constant [6 x i8] c"UTF-8\00", align 1
@.str.113 = private unnamed_addr constant [18 x i8] c"SCHILY.acl.access\00", align 1
@.str.114 = private unnamed_addr constant [19 x i8] c"SCHILY.acl.default\00", align 1
@.str.115 = private unnamed_addr constant [15 x i8] c"SCHILY.acl.ace\00", align 1
@.str.116 = private unnamed_addr constant [21 x i8] c"Unknown ACL type: %d\00", align 1
@.str.117 = private unnamed_addr constant [32 x i8] c"Unreasonably large ACL: %d > %d\00", align 1
@.str.118 = private unnamed_addr constant [54 x i8] c"Truncated tar archive detected while reading ACL data\00", align 1
@.str.119 = private unnamed_addr constant [6 x i8] c"%s %s\00", align 1
@.str.120 = private unnamed_addr constant [27 x i8] c"Can't allocate memory for \00", align 1
@.str.121 = private unnamed_addr constant [14 x i8] c"Parse error: \00", align 1

; Function Attrs: nounwind uwtable
define internal i32 @pax_attribute_SCHILY_acl(ptr noundef %0, ptr noundef %1, ptr noundef %2, i64 noundef %3, i32 noundef %4) #0 {
  %6 = alloca i32, align 4
  %7 = alloca ptr, align 8
  %8 = alloca ptr, align 8
  %9 = alloca ptr, align 8
  %10 = alloca i64, align 8
  %11 = alloca i32, align 4
  %12 = alloca i32, align 4
  %13 = alloca ptr, align 8
  %14 = alloca ptr, align 8
  %15 = alloca i32, align 4
  store ptr %0, ptr %7, align 8, !tbaa !11
  store ptr %1, ptr %8, align 8, !tbaa !13
  store ptr %2, ptr %9, align 8, !tbaa !45
  store i64 %3, ptr %10, align 8, !tbaa !46
  store i32 %4, ptr %11, align 4, !tbaa !9
  call void @llvm.lifetime.start.p0(i64 4, ptr %12) #10
  call void @llvm.lifetime.start.p0(i64 8, ptr %13) #10
  call void @llvm.lifetime.start.p0(i64 8, ptr %14) #10
  %16 = load i32, ptr %11, align 4, !tbaa !9
  switch i32 %16, label %20 [
    i32 256, label %17
    i32 512, label %18
    i32 15360, label %19
  ]

17:                                               ; preds = %5
  store ptr @.str.113, ptr %14, align 8, !tbaa !15
  br label %24

18:                                               ; preds = %5
  store ptr @.str.114, ptr %14, align 8, !tbaa !15
  br label %24

19:                                               ; preds = %5
  store ptr @.str.115, ptr %14, align 8, !tbaa !15
  br label %24

20:                                               ; preds = %5
  %21 = load ptr, ptr %7, align 8, !tbaa !11
  %22 = getelementptr inbounds nuw %struct.archive_read, ptr %21, i32 0, i32 0
  %23 = load i32, ptr %11, align 4, !tbaa !9
  call void (ptr, i32, ptr, ...) @archive_set_error(ptr noundef %22, i32 noundef -1, ptr noundef @.str.116, i32 noundef %23)
  store i32 -30, ptr %6, align 4
  store i32 1, ptr %15, align 4
  br label %93

24:                                               ; preds = %19, %18, %17
  %25 = load ptr, ptr %8, align 8, !tbaa !13
  %26 = getelementptr inbounds nuw %struct.tar, ptr %25, i32 0, i32 23
  %27 = load ptr, ptr %26, align 8, !tbaa !107
  %28 = icmp eq ptr %27, null
  br i1 %28, label %29, label %41

29:                                               ; preds = %24
  %30 = load ptr, ptr %7, align 8, !tbaa !11
  %31 = getelementptr inbounds nuw %struct.archive_read, ptr %30, i32 0, i32 0
  %32 = call ptr @archive_string_conversion_from_charset(ptr noundef %31, ptr noundef @.str.29, i32 noundef 1)
  %33 = load ptr, ptr %8, align 8, !tbaa !13
  %34 = getelementptr inbounds nuw %struct.tar, ptr %33, i32 0, i32 23
  store ptr %32, ptr %34, align 8, !tbaa !107
  %35 = load ptr, ptr %8, align 8, !tbaa !13
  %36 = getelementptr inbounds nuw %struct.tar, ptr %35, i32 0, i32 23
  %37 = load ptr, ptr %36, align 8, !tbaa !107
  %38 = icmp eq ptr %37, null
  br i1 %38, label %39, label %40

39:                                               ; preds = %29
  store i32 -30, ptr %6, align 4
  store i32 1, ptr %15, align 4
  br label %93

40:                                               ; preds = %29
  br label %41

41:                                               ; preds = %40, %24
  %42 = load i64, ptr %10, align 8, !tbaa !46
  %43 = icmp ugt i64 %42, 131072
  br i1 %43, label %44, label %52

44:                                               ; preds = %41
  %45 = load ptr, ptr %7, align 8, !tbaa !11
  %46 = load i64, ptr %10, align 8, !tbaa !46
  %47 = call i64 @__archive_read_consume(ptr noundef %45, i64 noundef %46)
  %48 = load ptr, ptr %7, align 8, !tbaa !11
  %49 = getelementptr inbounds nuw %struct.archive_read, ptr %48, i32 0, i32 0
  %50 = load i64, ptr %10, align 8, !tbaa !46
  %51 = trunc i64 %50 to i32
  call void (ptr, i32, ptr, ...) @archive_set_error(ptr noundef %49, i32 noundef -1, ptr noundef @.str.117, i32 noundef %51, i32 noundef 131072)
  store i32 -20, ptr %6, align 4
  store i32 1, ptr %15, align 4
  br label %93

52:                                               ; preds = %41
  %53 = load ptr, ptr %7, align 8, !tbaa !11
  %54 = load i64, ptr %10, align 8, !tbaa !46
  %55 = call ptr @__archive_read_ahead(ptr noundef %53, i64 noundef %54, ptr noundef null)
  store ptr %55, ptr %13, align 8, !tbaa !15
  %56 = load ptr, ptr %13, align 8, !tbaa !15
  %57 = icmp eq ptr %56, null
  br i1 %57, label %58, label %61

58:                                               ; preds = %52
  %59 = load ptr, ptr %7, align 8, !tbaa !11
  %60 = getelementptr inbounds nuw %struct.archive_read, ptr %59, i32 0, i32 0
  call void (ptr, i32, ptr, ...) @archive_set_error(ptr noundef %60, i32 noundef 84, ptr noundef @.str.118)
  store i32 -30, ptr %6, align 4
  store i32 1, ptr %15, align 4
  br label %93

61:                                               ; preds = %52
  %62 = load ptr, ptr %9, align 8, !tbaa !45
  %63 = call ptr @archive_entry_acl(ptr noundef %62)
  %64 = load ptr, ptr %13, align 8, !tbaa !15
  %65 = load i64, ptr %10, align 8, !tbaa !46
  %66 = load i32, ptr %11, align 4, !tbaa !9
  %67 = load ptr, ptr %8, align 8, !tbaa !13
  %68 = getelementptr inbounds nuw %struct.tar, ptr %67, i32 0, i32 23
  %69 = load ptr, ptr %68, align 8, !tbaa !107
  %70 = call i32 @archive_acl_from_text_nl(ptr noundef %63, ptr noundef %64, i64 noundef %65, i32 noundef %66, ptr noundef %69)
  store i32 %70, ptr %12, align 4, !tbaa !9
  %71 = load ptr, ptr %7, align 8, !tbaa !11
  %72 = load i64, ptr %10, align 8, !tbaa !46
  %73 = call i64 @__archive_read_consume(ptr noundef %71, i64 noundef %72)
  %74 = load ptr, ptr %9, align 8, !tbaa !45
  %75 = load ptr, ptr %9, align 8, !tbaa !45
  %76 = call i32 @archive_entry_perm(ptr noundef %75)
  call void @archive_entry_set_perm(ptr noundef %74, i32 noundef %76)
  %77 = load i32, ptr %12, align 4, !tbaa !9
  %78 = icmp ne i32 %77, 0
  br i1 %78, label %79, label %91

79:                                               ; preds = %61
  %80 = load i32, ptr %12, align 4, !tbaa !9
  %81 = icmp eq i32 %80, -30
  br i1 %81, label %82, label %87

82:                                               ; preds = %79
  %83 = load ptr, ptr %7, align 8, !tbaa !11
  %84 = getelementptr inbounds nuw %struct.archive_read, ptr %83, i32 0, i32 0
  %85 = load ptr, ptr %14, align 8, !tbaa !15
  call void (ptr, i32, ptr, ...) @archive_set_error(ptr noundef %84, i32 noundef 12, ptr noundef @.str.119, ptr noundef @.str.120, ptr noundef %85)
  %86 = load i32, ptr %12, align 4, !tbaa !9
  store i32 %86, ptr %6, align 4
  store i32 1, ptr %15, align 4
  br label %93

87:                                               ; preds = %79
  %88 = load ptr, ptr %7, align 8, !tbaa !11
  %89 = getelementptr inbounds nuw %struct.archive_read, ptr %88, i32 0, i32 0
  %90 = load ptr, ptr %14, align 8, !tbaa !15
  call void (ptr, i32, ptr, ...) @archive_set_error(ptr noundef %89, i32 noundef -1, ptr noundef @.str.119, ptr noundef @.str.121, ptr noundef %90)
  br label %91

91:                                               ; preds = %87, %61
  %92 = load i32, ptr %12, align 4, !tbaa !9
  store i32 %92, ptr %6, align 4
  store i32 1, ptr %15, align 4
  br label %93

93:                                               ; preds = %91, %82, %58, %44, %39, %20
  call void @llvm.lifetime.end.p0(i64 8, ptr %14) #10
  call void @llvm.lifetime.end.p0(i64 8, ptr %13) #10
  call void @llvm.lifetime.end.p0(i64 4, ptr %12) #10
  %94 = load i32, ptr %6, align 4
  ret i32 %94
}