; Function Attrs: nounwind uwtable
define internal fastcc i32 @pax_attribute_SCHILY_acl(ptr noundef %0, ptr noundef captures(none) %1, ptr noundef %2, i64 noundef %3, i32 noundef range(i32 256, 15361) %4) unnamed_addr #0 {
  switch i32 %4, label %8 [
    i32 256, label %9
    i32 512, label %6
    i32 15360, label %7
  ]

6:                                                ; preds = %5
  br label %9

7:                                                ; preds = %5
  br label %9

8:                                                ; preds = %5
  tail call void (ptr, i32, ptr, ...) @archive_set_error(ptr noundef %0, i32 noundef -1, ptr noundef nonnull @.str.116, i32 noundef %4) #13
  br label %33

9:                                                ; preds = %5, %7, %6
  %.0 = phi ptr [ @.str.115, %7 ], [ @.str.114, %6 ], [ @.str.113, %5 ]
  %10 = getelementptr inbounds nuw i8, ptr %1, i64 280
  %11 = load ptr, ptr %10, align 8, !tbaa !70
  %12 = icmp eq ptr %11, null
  br i1 %12, label %13, label %16

13:                                               ; preds = %9
  %14 = tail call ptr @archive_string_conversion_from_charset(ptr noundef %0, ptr noundef nonnull @.str.29, i32 noundef 1) #13
  store ptr %14, ptr %10, align 8, !tbaa !70
  %15 = icmp eq ptr %14, null
  br i1 %15, label %33, label %16

16:                                               ; preds = %13, %9
  %17 = icmp ugt i64 %3, 131072
  br i1 %17, label %18, label %21

18:                                               ; preds = %16
  %19 = tail call i64 @__archive_read_consume(ptr noundef %0, i64 noundef %3) #13
  %20 = trunc i64 %3 to i32
  tail call void (ptr, i32, ptr, ...) @archive_set_error(ptr noundef %0, i32 noundef -1, ptr noundef nonnull @.str.117, i32 noundef %20, i32 noundef 131072) #13
  br label %33

21:                                               ; preds = %16
  %22 = tail call ptr @__archive_read_ahead(ptr noundef %0, i64 noundef %3, ptr noundef null) #13
  %23 = icmp eq ptr %22, null
  br i1 %23, label %24, label %25

24:                                               ; preds = %21
  tail call void (ptr, i32, ptr, ...) @archive_set_error(ptr noundef %0, i32 noundef 84, ptr noundef nonnull @.str.118) #13
  br label %33

25:                                               ; preds = %21
  %26 = tail call ptr @archive_entry_acl(ptr noundef %2) #13
  %27 = load ptr, ptr %10, align 8, !tbaa !70
  %28 = tail call i32 @archive_acl_from_text_nl(ptr noundef %26, ptr noundef nonnull %22, i64 noundef %3, i32 noundef %4, ptr noundef %27) #13
  %29 = tail call i64 @__archive_read_consume(ptr noundef %0, i64 noundef %3) #13
  %30 = tail call i32 @archive_entry_perm(ptr noundef %2) #13
  tail call void @archive_entry_set_perm(ptr noundef %2, i32 noundef %30) #13
  switch i32 %28, label %32 [
    i32 0, label %33
    i32 -30, label %31
  ]

31:                                               ; preds = %25
  tail call void (ptr, i32, ptr, ...) @archive_set_error(ptr noundef %0, i32 noundef 12, ptr noundef nonnull @.str.119, ptr noundef nonnull @.str.120, ptr noundef nonnull %.0) #13
  br label %33

32:                                               ; preds = %25
  tail call void (ptr, i32, ptr, ...) @archive_set_error(ptr noundef %0, i32 noundef -1, ptr noundef nonnull @.str.119, ptr noundef nonnull @.str.121, ptr noundef nonnull %.0) #13
  br label %33

33:                                               ; preds = %32, %25, %13, %31, %24, %18, %8
  %.033 = phi i32 [ -30, %8 ], [ -20, %18 ], [ -30, %24 ], [ -30, %31 ], [ -30, %13 ], [ %28, %25 ], [ %28, %32 ]
  ret i32 %.033
}